; Function Attrs: nounwind uwtable
define dso_local range(i32 -1, 1) i32 @strbuf_getwholeline_fd(ptr noundef captures(none) initializes((8, 16)) %0, i32 noundef %1, i32 noundef %2) local_unnamed_addr #3 {
  %4 = alloca i8, align 1
  %5 = getelementptr inbounds nuw i8, ptr %0, i64 8
  store i64 0, ptr %5, align 8, !tbaa !16
  %6 = getelementptr inbounds nuw i8, ptr %0, i64 16
  %7 = load ptr, ptr %6, align 8, !tbaa !12
  %.not9.i = icmp eq ptr %7, @strbuf_slopbuf
  br i1 %.not9.i, label %strbuf_setlen.exit, label %8

8:                                                ; preds = %3
  store i8 0, ptr %7, align 1, !tbaa !4
  br label %strbuf_setlen.exit

strbuf_setlen.exit:                               ; preds = %3, %8
  call void @llvm.lifetime.start.p0(i64 1, ptr nonnull %4) #25
  %9 = call i64 @xread(i32 noundef %1, ptr noundef nonnull %4, i64 noundef 1) #25
  %10 = icmp slt i64 %9, 1
  br i1 %10, label %.thread, label %.lr.ph

.thread:                                          ; preds = %37, %strbuf_setlen.exit
  call void @llvm.lifetime.end.p0(i64 1, ptr nonnull %4) #25
  br label %.loopexit

.lr.ph:                                           ; preds = %strbuf_setlen.exit, %37
  %11 = load i8, ptr %4, align 1, !tbaa !4
  %12 = load i64, ptr %0, align 8, !tbaa !15
  %.not.i.i = icmp eq i64 %12, 0
  %13 = load i64, ptr %5, align 8, !tbaa !16
  br i1 %.not.i.i, label %strbuf_avail.exit.thread.i, label %strbuf_avail.exit.i

strbuf_avail.exit.i:                              ; preds = %.lr.ph
  %.neg.i = add i64 %13, 1
  %.not.i = icmp eq i64 %12, %.neg.i
  br i1 %.not.i, label %.thread.i, label %strbuf_addch.exit

strbuf_avail.exit.thread.i:                       ; preds = %.lr.ph
  %14 = icmp ugt i64 %13, -3
  br i1 %14, label %16, label %17

.thread.i:                                        ; preds = %strbuf_avail.exit.i
  %15 = icmp ugt i64 %13, -3
  br i1 %15, label %16, label %.thread8.i

16:                                               ; preds = %.thread.i, %strbuf_avail.exit.thread.i
  call void (ptr, ...) @die(ptr noundef nonnull @.str) #24
  unreachable

17:                                               ; preds = %strbuf_avail.exit.thread.i
  store ptr null, ptr %6, align 8, !tbaa !12
  br label %.thread8.i

.thread8.i:                                       ; preds = %17, %.thread.i
  %18 = add nuw i64 %13, 2
  %19 = icmp ugt i64 %18, %12
  br i1 %19, label %20, label %strbuf_addch.exit

20:                                               ; preds = %.thread8.i
  %21 = mul i64 %12, 3
  %22 = add i64 %21, 48
  %23 = lshr i64 %22, 1
  %..i.i = call i64 @llvm.umax.i64(i64 %23, i64 %18)
  store i64 %..i.i, ptr %0, align 8, !tbaa !15
  %24 = load ptr, ptr %6, align 8, !tbaa !12
  %25 = call ptr @xrealloc(ptr noundef %24, i64 noundef %..i.i) #25
  store ptr %25, ptr %6, align 8, !tbaa !12
  br i1 %.not.i.i, label %26, label %strbuf_addch.exit

26:                                               ; preds = %20
  store i8 0, ptr %25, align 1, !tbaa !4
  br label %strbuf_addch.exit

strbuf_addch.exit:                                ; preds = %strbuf_avail.exit.i, %.thread8.i, %20, %26
  %27 = load ptr, ptr %6, align 8, !tbaa !12
  %28 = load i64, ptr %5, align 8, !tbaa !16
  %29 = add i64 %28, 1
  store i64 %29, ptr %5, align 8, !tbaa !16
  %30 = getelementptr inbounds nuw i8, ptr %27, i64 %28
  store i8 %11, ptr %30, align 1, !tbaa !4
  %31 = load ptr, ptr %6, align 8, !tbaa !12
  %32 = load i64, ptr %5, align 8, !tbaa !16
  %33 = getelementptr inbounds nuw i8, ptr %31, i64 %32
  store i8 0, ptr %33, align 1, !tbaa !4
  %34 = load i8, ptr %4, align 1, !tbaa !4
  %35 = sext i8 %34 to i32
  %36 = icmp eq i32 %2, %35
  call void @llvm.lifetime.end.p0(i64 1, ptr nonnull %4) #25
  br i1 %36, label %.loopexit, label %37

37:                                               ; preds = %strbuf_addch.exit
  call void @llvm.lifetime.start.p0(i64 1, ptr nonnull %4) #25
  %38 = call i64 @xread(i32 noundef %1, ptr noundef nonnull %4, i64 noundef 1) #25
  %39 = icmp slt i64 %38, 1
  br i1 %39, label %.thread, label %.lr.ph

.loopexit:                                        ; preds = %strbuf_addch.exit, %.thread
  %.2 = phi i32 [ -1, %.thread ], [ 0, %strbuf_addch.exit ]
  ret i32 %.2
}